target datalayout = "e-m:e-p270:32:32-p271:32:32-p272:64:64-i64:64-i128:128-f80:128-n8:16:32:64-S128"
target triple = "x86_64-pc-linux-gnu"

@hf_woww_amount_of_splines = internal global i32 0, align 4
@hf_woww_packed_spline = internal global i32 0, align 4
@hf_woww_x = internal global i32 0, align 4
@hf_woww_y = internal global i32 0, align 4
@hf_woww_z = internal global i32 0, align 4
@ett_message = internal global i32 0, align 4
@.str.6419 = private unnamed_addr constant [16 x i8] c"Unpacked Spline\00", align 1

; Function Attrs: null_pointer_is_valid sspstrong uwtable
define internal void @add_monster_move_spline(ptr noundef %0) #0 {
  %2 = alloca ptr, align 8
  %3 = alloca i32, align 4
  %4 = alloca i32, align 4
  store ptr %0, ptr %2, align 8
  call void @llvm.lifetime.start.p0(i64 4, ptr %3) #8
  store i32 0, ptr %3, align 4
  %5 = load ptr, ptr %2, align 8
  %6 = load i32, ptr @hf_woww_amount_of_splines, align 4
  %7 = call ptr @ptvcursor_add_ret_uint(ptr noundef %5, i32 noundef %6, i32 noundef 4, i32 noundef -2147483648, ptr noundef %3)
  %8 = load i32, ptr %3, align 4
  %9 = icmp uge i32 %8, 1
  br i1 %9, label %10, label %24

10:                                               ; preds = %1
  %11 = load ptr, ptr %2, align 8
  %12 = load i32, ptr @ett_message, align 4
  %13 = call ptr (ptr, i32, i32, ptr, ...) @ptvcursor_add_text_with_subtree(ptr noundef %11, i32 noundef -1, i32 noundef %12, ptr noundef @.str.6419)
  %14 = load ptr, ptr %2, align 8
  %15 = load i32, ptr @hf_woww_x, align 4
  %16 = call ptr @ptvcursor_add(ptr noundef %14, i32 noundef %15, i32 noundef 4, i32 noundef -2147483648)
  %17 = load ptr, ptr %2, align 8
  %18 = load i32, ptr @hf_woww_y, align 4
  %19 = call ptr @ptvcursor_add(ptr noundef %17, i32 noundef %18, i32 noundef 4, i32 noundef -2147483648)
  %20 = load ptr, ptr %2, align 8
  %21 = load i32, ptr @hf_woww_z, align 4
  %22 = call ptr @ptvcursor_add(ptr noundef %20, i32 noundef %21, i32 noundef 4, i32 noundef -2147483648)
  %23 = load ptr, ptr %2, align 8
  call void @ptvcursor_pop_subtree(ptr noundef %23)
  br label %24

24:                                               ; preds = %10, %1
  call void @llvm.lifetime.start.p0(i64 4, ptr %4) #8
  store i32 1, ptr %4, align 4
  br label %25

25:                                               ; preds = %34, %24
  %26 = load i32, ptr %4, align 4
  %27 = load i32, ptr %3, align 4
  %28 = icmp ult i32 %26, %27
  br i1 %28, label %30, label %29

29:                                               ; preds = %25
  call void @llvm.lifetime.end.p0(i64 4, ptr %4) #8
  br label %37

30:                                               ; preds = %25
  %31 = load ptr, ptr %2, align 8
  %32 = load i32, ptr @hf_woww_packed_spline, align 4
  %33 = call ptr @ptvcursor_add(ptr noundef %31, i32 noundef %32, i32 noundef 4, i32 noundef -2147483648)
  br label %34

34:                                               ; preds = %30
  %35 = load i32, ptr %4, align 4
  %36 = add i32 %35, 1
  store i32 %36, ptr %4, align 4
  br label %25, !llvm.loop !107

37:                                               ; preds = %29
  call void @llvm.lifetime.end.p0(i64 4, ptr %3) #8
  ret void
}