; Function Attrs: null_pointer_is_valid sspstrong uwtable
define internal fastcc void @add_monster_move_spline(ptr noundef %0) unnamed_addr #0 {
  %2 = alloca i32, align 4
  call void @llvm.lifetime.start.p0(i64 4, ptr nonnull %2) #6
  store i32 0, ptr %2, align 4
  %3 = load i32, ptr @hf_woww_amount_of_splines, align 4
  %4 = call ptr @ptvcursor_add_ret_uint(ptr noundef %0, i32 noundef %3, i32 noundef 4, i32 noundef -2147483648, ptr noundef nonnull %2)
  %5 = load i32, ptr %2, align 4
  %.not = icmp eq i32 %5, 0
  br i1 %.not, label %._crit_edge, label %6

6:                                                ; preds = %1
  %7 = load i32, ptr @ett_message, align 4
  %8 = call ptr (ptr, i32, i32, ptr, ...) @ptvcursor_add_text_with_subtree(ptr noundef %0, i32 noundef -1, i32 noundef %7, ptr noundef nonnull @.str.6419)
  %9 = load i32, ptr @hf_woww_x, align 4
  %10 = call ptr @ptvcursor_add(ptr noundef %0, i32 noundef %9, i32 noundef 4, i32 noundef -2147483648)
  %11 = load i32, ptr @hf_woww_y, align 4
  %12 = call ptr @ptvcursor_add(ptr noundef %0, i32 noundef %11, i32 noundef 4, i32 noundef -2147483648)
  %13 = load i32, ptr @hf_woww_z, align 4
  %14 = call ptr @ptvcursor_add(ptr noundef %0, i32 noundef %13, i32 noundef 4, i32 noundef -2147483648)
  call void @ptvcursor_pop_subtree(ptr noundef %0)
  %.pre = load i32, ptr %2, align 4
  %15 = icmp ugt i32 %.pre, 1
  br i1 %15, label %.lr.ph, label %._crit_edge

._crit_edge:                                      ; preds = %.lr.ph, %1, %6
  call void @llvm.lifetime.end.p0(i64 4, ptr nonnull %2) #6
  ret void

.lr.ph:                                           ; preds = %6, %.lr.ph
  %.08 = phi i32 [ %18, %.lr.ph ], [ 1, %6 ]
  %16 = load i32, ptr @hf_woww_packed_spline, align 4
  %17 = call ptr @ptvcursor_add(ptr noundef %0, i32 noundef %16, i32 noundef 4, i32 noundef -2147483648)
  %18 = add nuw i32 %.08, 1
  %19 = load i32, ptr %2, align 4
  %20 = icmp ult i32 %18, %19
  br i1 %20, label %.lr.ph, label %._crit_edge, !llvm.loop !112
}